; Function Attrs: nounwind uwtable
define internal void @cbMonitorWaited(ptr nocapture readnone %0, ptr noundef %1, ptr noundef %2, ptr noundef %3, i8 noundef zeroext %4) #0 {
  %6 = alloca %struct.EventInfo, align 8
  %7 = alloca ptr, align 8
  %8 = alloca i64, align 8
  %9 = load ptr, ptr @gdata, align 8
  %10 = getelementptr inbounds i8, ptr %9, i64 528
  %11 = load i32, ptr %10, align 8
  %12 = and i32 %11, 64
  %.not = icmp eq i32 %12, 0
  br i1 %.not, label %14, label %13

13:                                               ; preds = %5
  tail call void @log_message_begin(ptr noundef nonnull @.str.28, ptr noundef nonnull @.str.4, i32 noundef 1206) #6
  tail call void (ptr, ...) @log_message_end(ptr noundef nonnull @.str.71, ptr noundef %2) #6
  br label %14

14:                                               ; preds = %5, %13
  %15 = load ptr, ptr @callbackLock, align 8
  tail call void @debugMonitorEnter(ptr noundef %15) #6
  %.b8 = load i1, ptr @vm_death_callback_active, align 1
  br i1 %.b8, label %.thread, label %19

.thread:                                          ; preds = %14
  %16 = load ptr, ptr @callbackLock, align 8
  tail call void @debugMonitorExit(ptr noundef %16) #6
  %17 = load ptr, ptr @callbackBlock, align 8
  tail call void @debugMonitorEnter(ptr noundef %17) #6
  %18 = load ptr, ptr @callbackBlock, align 8
  tail call void @debugMonitorExit(ptr noundef %18) #6
  br label %78

19:                                               ; preds = %14
  %20 = load i32, ptr @active_callbacks, align 4
  %21 = add nsw i32 %20, 1
  store i32 %21, ptr @active_callbacks, align 4
  %22 = load ptr, ptr @callbackLock, align 8
  tail call void @debugMonitorExit(ptr noundef %22) #6
  call void @llvm.memset.p0.i64(ptr noundef nonnull align 8 dereferenceable(88) %6, i8 0, i64 88, i1 false)
  store i32 18, ptr %6, align 8
  %23 = getelementptr inbounds i8, ptr %6, i64 8
  store ptr %2, ptr %23, align 8
  %24 = getelementptr inbounds i8, ptr %6, i64 48
  store ptr %3, ptr %24, align 8
  %25 = tail call ptr @getEnv() #6
  %26 = load ptr, ptr @gdata, align 8
  %27 = getelementptr inbounds i8, ptr %26, i64 528
  %28 = load i32, ptr %27, align 8
  %29 = and i32 %28, 2
  %.not.i = icmp eq i32 %29, 0
  br i1 %.not.i, label %getObjectClass.exit, label %30

30:                                               ; preds = %19
  tail call void @log_message_begin(ptr noundef nonnull @.str.34, ptr noundef nonnull @.str.4, i32 noundef 711) #6
  tail call void (ptr, ...) @log_message_end(ptr noundef nonnull @.str.15, ptr noundef nonnull @.str.70) #6
  br label %getObjectClass.exit

getObjectClass.exit:                              ; preds = %19, %30
  %31 = load ptr, ptr %25, align 8
  %32 = getelementptr inbounds i8, ptr %31, i64 248
  %33 = load ptr, ptr %32, align 8
  %34 = tail call ptr %33(ptr noundef nonnull %25, ptr noundef %3) #6
  %35 = getelementptr inbounds i8, ptr %6, i64 24
  store ptr %34, ptr %35, align 8
  %36 = getelementptr inbounds i8, ptr %6, i64 56
  store i8 %4, ptr %36, align 8
  %37 = load ptr, ptr @gdata, align 8
  %38 = getelementptr inbounds i8, ptr %37, i64 528
  %39 = load i32, ptr %38, align 8
  %40 = and i32 %39, 4
  %.not10 = icmp eq i32 %40, 0
  br i1 %.not10, label %42, label %41

41:                                               ; preds = %getObjectClass.exit
  tail call void @log_message_begin(ptr noundef nonnull @.str.14, ptr noundef nonnull @.str.4, i32 noundef 1223) #6
  tail call void (ptr, ...) @log_message_end(ptr noundef nonnull @.str.15, ptr noundef nonnull @.str.64) #6
  %.pre = load ptr, ptr @gdata, align 8
  br label %42

42:                                               ; preds = %getObjectClass.exit, %41
  %43 = phi ptr [ %37, %getObjectClass.exit ], [ %.pre, %41 ]
  %44 = load ptr, ptr %43, align 8
  %45 = load ptr, ptr %44, align 8
  %46 = getelementptr inbounds i8, ptr %45, i64 144
  %47 = load ptr, ptr %46, align 8
  %48 = call i32 %47(ptr noundef nonnull %44, ptr noundef %2, i32 noundef 0, ptr noundef nonnull %7, ptr noundef nonnull %8) #6
  %49 = icmp eq i32 %48, 0
  br i1 %49, label %50, label %54

50:                                               ; preds = %42
  %51 = load i64, ptr %8, align 8
  %52 = load ptr, ptr %7, align 8
  %53 = getelementptr inbounds i8, ptr %6, i64 32
  store ptr %52, ptr %53, align 8
  br label %54

54:                                               ; preds = %42, %50
  %.sink = phi i64 [ %51, %50 ], [ -1, %42 ]
  %55 = getelementptr inbounds i8, ptr %6, i64 40
  store i64 %.sink, ptr %55, align 8
  call fastcc void @event_callback(ptr noundef %1, ptr noundef nonnull %6)
  %56 = load ptr, ptr @callbackLock, align 8
  call void @debugMonitorEnter(ptr noundef %56) #6
  %57 = load i32, ptr @active_callbacks, align 4
  %58 = add nsw i32 %57, -1
  store i32 %58, ptr @active_callbacks, align 4
  %59 = icmp slt i32 %57, 1
  br i1 %59, label %60, label %63

60:                                               ; preds = %54
  %61 = load ptr, ptr @stderr, align 8
  %62 = call ptr @jvmtiErrorText(i32 noundef 0) #6
  call void (ptr, ptr, ptr, ptr, ...) @print_message(ptr noundef %61, ptr noundef nonnull @.str, ptr noundef nonnull @.str.1, ptr noundef nonnull @.str.2, ptr noundef %62, i32 noundef 0, ptr noundef nonnull @.str.30, ptr noundef nonnull @.str.4, i32 noundef 1232) #6
  call void @debugInit_exit(i32 noundef 0, ptr noundef nonnull @.str.30) #6
  br label %63

63:                                               ; preds = %60, %54
  %.b = load i1, ptr @vm_death_callback_active, align 1
  %64 = load i32, ptr @active_callbacks, align 4
  %65 = icmp eq i32 %64, 0
  br i1 %.b, label %66, label %73

66:                                               ; preds = %63
  br i1 %65, label %67, label %69

67:                                               ; preds = %66
  %68 = load ptr, ptr @callbackLock, align 8
  call void @debugMonitorNotifyAll(ptr noundef %68) #6
  br label %69

69:                                               ; preds = %67, %66
  %70 = load ptr, ptr @callbackLock, align 8
  call void @debugMonitorExit(ptr noundef %70) #6
  %71 = load ptr, ptr @callbackBlock, align 8
  call void @debugMonitorEnter(ptr noundef %71) #6
  %72 = load ptr, ptr @callbackBlock, align 8
  call void @debugMonitorExit(ptr noundef %72) #6
  br label %78

73:                                               ; preds = %63
  br i1 %65, label %74, label %76

74:                                               ; preds = %73
  %75 = load ptr, ptr @callbackLock, align 8
  call void @debugMonitorNotifyAll(ptr noundef %75) #6
  br label %76

76:                                               ; preds = %74, %73
  %77 = load ptr, ptr @callbackLock, align 8
  call void @debugMonitorExit(ptr noundef %77) #6
  br label %78

78:                                               ; preds = %.thread, %69, %76
  %79 = load ptr, ptr @gdata, align 8
  %80 = getelementptr inbounds i8, ptr %79, i64 528
  %81 = load i32, ptr %80, align 8
  %82 = and i32 %81, 8
  %.not11 = icmp eq i32 %82, 0
  br i1 %.not11, label %84, label %83

83:                                               ; preds = %78
  call void @log_message_begin(ptr noundef nonnull @.str.25, ptr noundef nonnull @.str.4, i32 noundef 1234) #6
  call void (ptr, ...) @log_message_end(ptr noundef nonnull @.str.72) #6
  br label %84

84:                                               ; preds = %78, %83
  ret void
}